; Function Attrs: norecurse nounwind uwtable
define internal void @_ZN3gmx10PropagatorILNS_16IntegrationStageE5EE3runILNS_24NumVelocityScalingValuesE1ELNS_31ParrinelloRahmanVelocityScalingE0ELS4_1ELNS_24NumPositionScalingValuesE0EEEvv.omp_outlined(ptr noalias nocapture noundef readonly %0, ptr noalias nocapture readnone %1, ptr nocapture noundef nonnull readonly align 4 dereferenceable(4) %2, ptr nocapture noundef nonnull readonly align 4 dereferenceable(4) %3, ptr nocapture readnone %4, i64 %5, ptr nocapture nonnull readnone align 8 %6) #7 personality ptr @__gxx_personality_v0 {
  %8 = alloca i32, align 4
  %9 = alloca i32, align 4
  %10 = alloca i32, align 4
  %11 = alloca i32, align 4
  %12 = alloca i32, align 4
  %13 = alloca i32, align 4
  %14 = load i32, ptr %2, align 4
  %15 = icmp sgt i32 %14, 0
  br i1 %15, label %16, label %36

16:                                               ; preds = %7
  %17 = add nsw i32 %14, -1
  store i32 0, ptr %8, align 4
  store i32 %17, ptr %9, align 4
  store i32 1, ptr %10, align 4
  store i32 0, ptr %11, align 4
  %18 = load i32, ptr %0, align 4
  call void @__kmpc_for_static_init_4(ptr nonnull @1, i32 %18, i32 34, ptr nonnull %11, ptr nonnull %8, ptr nonnull %9, ptr nonnull %10, i32 1, i32 1)
  %19 = load i32, ptr %9, align 4
  %20 = call i32 @llvm.smin.i32(i32 %19, i32 %17)
  store i32 %20, ptr %9, align 4
  %21 = load i32, ptr %8, align 4
  %.not21 = icmp sgt i32 %21, %20
  br i1 %.not21, label %._crit_edge, label %.lr.ph

.lr.ph:                                           ; preds = %16, %24
  %.022 = phi i32 [ %25, %24 ], [ %21, %16 ]
  %22 = load i32, ptr %2, align 4
  %23 = load i32, ptr %3, align 4
  invoke void @_Z18getThreadAtomRangeiiiPiS_(i32 noundef %22, i32 noundef %.022, i32 noundef %23, ptr noundef nonnull %12, ptr noundef nonnull %13)
          to label %24 unwind label %27

24:                                               ; preds = %.lr.ph
  %25 = add nsw i32 %.022, 1
  %26 = load i32, ptr %9, align 4
  %.not.not = icmp slt i32 %.022, %26
  br i1 %.not.not, label %.lr.ph, label %._crit_edge

27:                                               ; preds = %.lr.ph
  %28 = landingpad { ptr, i32 }
          catch ptr @_ZTISt9exception
          catch ptr null
  %29 = extractvalue { ptr, i32 } %28, 0
  %30 = extractvalue { ptr, i32 } %28, 1
  %31 = call i32 @llvm.eh.typeid.for(ptr nonnull @_ZTISt9exception) #8
  %32 = icmp eq i32 %30, %31
  br i1 %32, label %33, label %40

33:                                               ; preds = %27
  %34 = call ptr @__cxa_begin_catch(ptr %29) #8
  invoke void @_ZN3gmx28processExceptionAsFatalErrorERKSt9exception(ptr noundef nonnull align 8 dereferenceable(8) %34) #22
          to label %35 unwind label %37

35:                                               ; preds = %33
  unreachable

._crit_edge:                                      ; preds = %24, %16
  call void @__kmpc_for_static_fini(ptr nonnull @1, i32 %18)
  br label %36

36:                                               ; preds = %._crit_edge, %7
  ret void

37:                                               ; preds = %33
  %38 = landingpad { ptr, i32 }
          catch ptr null
  %39 = extractvalue { ptr, i32 } %38, 0
  call void @__clang_call_terminate(ptr %39) #23
  unreachable

40:                                               ; preds = %27
  call void @__clang_call_terminate(ptr %29) #23
  unreachable
}